target datalayout = "e-m:e-p270:32:32-p271:32:32-p272:64:64-i64:64-f80:128-n8:16:32:64-S128"
target triple = "x86_64-pc-linux-gnu"

%struct.student = type { [20 x i8], i32, i32, i8, i8, i32, i32 }

@stu = common dso_local global [100 x %struct.student] zeroinitializer, align 16
@.str = private unnamed_addr constant [3 x i8] c"%d\00", align 1
@.str.1 = private unnamed_addr constant [18 x i8] c"%s %d %d %c %c %d\00", align 1
@.str.2 = private unnamed_addr constant [10 x i8] c"%s\0A%d\0A%d\0A\00", align 1
@.str.3 = private unnamed_addr constant [3 x i8] c"%s\00", align 1

; Function Attrs: noinline nounwind uwtable
define dso_local i32 @main() #0 {
  %1 = alloca i32, align 4
  %2 = alloca i8, align 1
  %3 = alloca i32, align 4
  %4 = alloca i32, align 4
  %5 = alloca i32, align 4
  %6 = alloca i32, align 4
  %7 = alloca %struct.student*, align 8
  %8 = alloca %struct.student, align 4
  store i32 0, i32* %1, align 4
  store i32 0, i32* %6, align 4
  store %struct.student* getelementptr inbounds ([100 x %struct.student], [100 x %struct.student]* @stu, i64 0, i64 0), %struct.student** %7, align 8
  store %struct.student* getelementptr inbounds ([100 x %struct.student], [100 x %struct.student]* @stu, i64 0, i64 0), %struct.student** %7, align 8
  %9 = call i32 (i8*, ...) @__isoc99_scanf(i8* getelementptr inbounds ([3 x i8], [3 x i8]* @.str, i64 0, i64 0), i32* %3)
  store i32 0, i32* %4, align 4
  br label %10

10:                                               ; preds = %40, %0
  %11 = load i32, i32* %4, align 4
  %12 = load i32, i32* %3, align 4
  %13 = icmp slt i32 %11, %12
  br i1 %13, label %14, label %43

14:                                               ; preds = %10
  %15 = load i32, i32* %4, align 4
  %16 = sext i32 %15 to i64
  %17 = getelementptr inbounds [100 x %struct.student], [100 x %struct.student]* @stu, i64 0, i64 %16
  %18 = getelementptr inbounds %struct.student, %struct.student* %17, i32 0, i32 0
  %19 = load i32, i32* %4, align 4
  %20 = sext i32 %19 to i64
  %21 = getelementptr inbounds [100 x %struct.student], [100 x %struct.student]* @stu, i64 0, i64 %20
  %22 = getelementptr inbounds %struct.student, %struct.student* %21, i32 0, i32 1
  %23 = load i32, i32* %4, align 4
  %24 = sext i32 %23 to i64
  %25 = getelementptr inbounds [100 x %struct.student], [100 x %struct.student]* @stu, i64 0, i64 %24
  %26 = getelementptr inbounds %struct.student, %struct.student* %25, i32 0, i32 2
  %27 = load i32, i32* %4, align 4
  %28 = sext i32 %27 to i64
  %29 = getelementptr inbounds [100 x %struct.student], [100 x %struct.student]* @stu, i64 0, i64 %28
  %30 = getelementptr inbounds %struct.student, %struct.student* %29, i32 0, i32 3
  %31 = load i32, i32* %4, align 4
  %32 = sext i32 %31 to i64
  %33 = getelementptr inbounds [100 x %struct.student], [100 x %struct.student]* @stu, i64 0, i64 %32
  %34 = getelementptr inbounds %struct.student, %struct.student* %33, i32 0, i32 4
  %35 = load i32, i32* %4, align 4
  %36 = sext i32 %35 to i64
  %37 = getelementptr inbounds [100 x %struct.student], [100 x %struct.student]* @stu, i64 0, i64 %36
  %38 = getelementptr inbounds %struct.student, %struct.student* %37, i32 0, i32 5
  %39 = call i32 (i8*, ...) @__isoc99_scanf(i8* getelementptr inbounds ([18 x i8], [18 x i8]* @.str.1, i64 0, i64 0), [20 x i8]* %18, i32* %22, i32* %26, i8* %30, i8* %34, i32* %38)
  br label %40

40:                                               ; preds = %14
  %41 = load i32, i32* %4, align 4
  %42 = add nsw i32 %41, 1
  store i32 %42, i32* %4, align 4
  br label %10

43:                                               ; preds = %10
  store i32 0, i32* %4, align 4
  br label %44

44:                                               ; preds = %153, %43
  %45 = load i32, i32* %4, align 4
  %46 = load i32, i32* %3, align 4
  %47 = icmp slt i32 %45, %46
  br i1 %47, label %48, label %156

48:                                               ; preds = %44
  %49 = load i32, i32* %4, align 4
  %50 = sext i32 %49 to i64
  %51 = getelementptr inbounds [100 x %struct.student], [100 x %struct.student]* @stu, i64 0, i64 %50
  %52 = getelementptr inbounds %struct.student, %struct.student* %51, i32 0, i32 6
  store i32 0, i32* %52, align 4
  %53 = load i32, i32* %4, align 4
  %54 = sext i32 %53 to i64
  %55 = getelementptr inbounds [100 x %struct.student], [100 x %struct.student]* @stu, i64 0, i64 %54
  %56 = getelementptr inbounds %struct.student, %struct.student* %55, i32 0, i32 1
  %57 = load i32, i32* %56, align 4
  %58 = icmp sgt i32 %57, 80
  br i1 %58, label %59, label %73

59:                                               ; preds = %48
  %60 = load i32, i32* %4, align 4
  %61 = sext i32 %60 to i64
  %62 = getelementptr inbounds [100 x %struct.student], [100 x %struct.student]* @stu, i64 0, i64 %61
  %63 = getelementptr inbounds %struct.student, %struct.student* %62, i32 0, i32 5
  %64 = load i32, i32* %63, align 8
  %65 = icmp sge i32 %64, 1
  br i1 %65, label %66, label %73

66:                                               ; preds = %59
  %67 = load i32, i32* %4, align 4
  %68 = sext i32 %67 to i64
  %69 = getelementptr inbounds [100 x %struct.student], [100 x %struct.student]* @stu, i64 0, i64 %68
  %70 = getelementptr inbounds %struct.student, %struct.student* %69, i32 0, i32 6
  %71 = load i32, i32* %70, align 4
  %72 = add nsw i32 %71, 8000
  store i32 %72, i32* %70, align 4
  br label %73

73:                                               ; preds = %66, %59, %48
  %74 = load i32, i32* %4, align 4
  %75 = sext i32 %74 to i64
  %76 = getelementptr inbounds [100 x %struct.student], [100 x %struct.student]* @stu, i64 0, i64 %75
  %77 = getelementptr inbounds %struct.student, %struct.student* %76, i32 0, i32 1
  %78 = load i32, i32* %77, align 4
  %79 = icmp sgt i32 %78, 85
  br i1 %79, label %80, label %94

80:                                               ; preds = %73
  %81 = load i32, i32* %4, align 4
  %82 = sext i32 %81 to i64
  %83 = getelementptr inbounds [100 x %struct.student], [100 x %struct.student]* @stu, i64 0, i64 %82
  %84 = getelementptr inbounds %struct.student, %struct.student* %83, i32 0, i32 2
  %85 = load i32, i32* %84, align 8
  %86 = icmp sgt i32 %85, 80
  br i1 %86, label %87, label %94

87:                                               ; preds = %80
  %88 = load i32, i32* %4, align 4
  %89 = sext i32 %88 to i64
  %90 = getelementptr inbounds [100 x %struct.student], [100 x %struct.student]* @stu, i64 0, i64 %89
  %91 = getelementptr inbounds %struct.student, %struct.student* %90, i32 0, i32 6
  %92 = load i32, i32* %91, align 4
  %93 = add nsw i32 %92, 4000
  store i32 %93, i32* %91, align 4
  br label %94

94:                                               ; preds = %87, %80, %73
  %95 = load i32, i32* %4, align 4
  %96 = sext i32 %95 to i64
  %97 = getelementptr inbounds [100 x %struct.student], [100 x %struct.student]* @stu, i64 0, i64 %96
  %98 = getelementptr inbounds %struct.student, %struct.student* %97, i32 0, i32 1
  %99 = load i32, i32* %98, align 4
  %100 = icmp sgt i32 %99, 90
  br i1 %100, label %101, label %108

101:                                              ; preds = %94
  %102 = load i32, i32* %4, align 4
  %103 = sext i32 %102 to i64
  %104 = getelementptr inbounds [100 x %struct.student], [100 x %struct.student]* @stu, i64 0, i64 %103
  %105 = getelementptr inbounds %struct.student, %struct.student* %104, i32 0, i32 6
  %106 = load i32, i32* %105, align 4
  %107 = add nsw i32 %106, 2000
  store i32 %107, i32* %105, align 4
  br label %108

108:                                              ; preds = %101, %94
  %109 = load i32, i32* %4, align 4
  %110 = sext i32 %109 to i64
  %111 = getelementptr inbounds [100 x %struct.student], [100 x %struct.student]* @stu, i64 0, i64 %110
  %112 = getelementptr inbounds %struct.student, %struct.student* %111, i32 0, i32 1
  %113 = load i32, i32* %112, align 4
  %114 = icmp sgt i32 %113, 85
  br i1 %114, label %115, label %130

115:                                              ; preds = %108
  %116 = load i32, i32* %4, align 4
  %117 = sext i32 %116 to i64
  %118 = getelementptr inbounds [100 x %struct.student], [100 x %struct.student]* @stu, i64 0, i64 %117
  %119 = getelementptr inbounds %struct.student, %struct.student* %118, i32 0, i32 4
  %120 = load i8, i8* %119, align 1
  %121 = sext i8 %120 to i32
  %122 = icmp eq i32 %121, 89
  br i1 %122, label %123, label %130

123:                                              ; preds = %115
  %124 = load i32, i32* %4, align 4
  %125 = sext i32 %124 to i64
  %126 = getelementptr inbounds [100 x %struct.student], [100 x %struct.student]* @stu, i64 0, i64 %125
  %127 = getelementptr inbounds %struct.student, %struct.student* %126, i32 0, i32 6
  %128 = load i32, i32* %127, align 4
  %129 = add nsw i32 %128, 1000
  store i32 %129, i32* %127, align 4
  br label %130

130:                                              ; preds = %123, %115, %108
  %131 = load i32, i32* %4, align 4
  %132 = sext i32 %131 to i64
  %133 = getelementptr inbounds [100 x %struct.student], [100 x %struct.student]* @stu, i64 0, i64 %132
  %134 = getelementptr inbounds %struct.student, %struct.student* %133, i32 0, i32 2
  %135 = load i32, i32* %134, align 8
  %136 = icmp sgt i32 %135, 80
  br i1 %136, label %137, label %152

137:                                              ; preds = %130
  %138 = load i32, i32* %4, align 4
  %139 = sext i32 %138 to i64
  %140 = getelementptr inbounds [100 x %struct.student], [100 x %struct.student]* @stu, i64 0, i64 %139
  %141 = getelementptr inbounds %struct.student, %struct.student* %140, i32 0, i32 3
  %142 = load i8, i8* %141, align 4
  %143 = sext i8 %142 to i32
  %144 = icmp eq i32 %143, 89
  br i1 %144, label %145, label %152

145:                                              ; preds = %137
  %146 = load i32, i32* %4, align 4
  %147 = sext i32 %146 to i64
  %148 = getelementptr inbounds [100 x %struct.student], [100 x %struct.student]* @stu, i64 0, i64 %147
  %149 = getelementptr inbounds %struct.student, %struct.student* %148, i32 0, i32 6
  %150 = load i32, i32* %149, align 4
  %151 = add nsw i32 %150, 850
  store i32 %151, i32* %149, align 4
  br label %152

152:                                              ; preds = %145, %137, %130
  br label %153

153:                                              ; preds = %152
  %154 = load i32, i32* %4, align 4
  %155 = add nsw i32 %154, 1
  store i32 %155, i32* %4, align 4
  br label %44

156:                                              ; preds = %44
  store i32 0, i32* %5, align 4
  br label %157

157:                                              ; preds = %211, %156
  %158 = load i32, i32* %5, align 4
  %159 = load i32, i32* %3, align 4
  %160 = icmp slt i32 %158, %159
  br i1 %160, label %161, label %214

161:                                              ; preds = %157
  store i32 0, i32* %4, align 4
  br label %162

162:                                              ; preds = %207, %161
  %163 = load i32, i32* %4, align 4
  %164 = load i32, i32* %3, align 4
  %165 = load i32, i32* %5, align 4
  %166 = sub nsw i32 %164, %165
  %167 = icmp slt i32 %163, %166
  br i1 %167, label %168, label %210

168:                                              ; preds = %162
  %169 = load i32, i32* %4, align 4
  %170 = sext i32 %169 to i64
  %171 = getelementptr inbounds [100 x %struct.student], [100 x %struct.student]* @stu, i64 0, i64 %170
  %172 = getelementptr inbounds %struct.student, %struct.student* %171, i32 0, i32 6
  %173 = load i32, i32* %172, align 4
  %174 = load i32, i32* %4, align 4
  %175 = add nsw i32 %174, 1
  %176 = sext i32 %175 to i64
  %177 = getelementptr inbounds [100 x %struct.student], [100 x %struct.student]* @stu, i64 0, i64 %176
  %178 = getelementptr inbounds %struct.student, %struct.student* %177, i32 0, i32 6
  %179 = load i32, i32* %178, align 4
  %180 = icmp slt i32 %173, %179
  br i1 %180, label %181, label %206

181:                                              ; preds = %168
  %182 = load %struct.student*, %struct.student** %7, align 8
  %183 = load i32, i32* %4, align 4
  %184 = sext i32 %183 to i64
  %185 = getelementptr inbounds %struct.student, %struct.student* %182, i64 %184
  %186 = bitcast %struct.student* %8 to i8*
  %187 = bitcast %struct.student* %185 to i8*
  call void @llvm.memcpy.p0i8.p0i8.i64(i8* align 4 %186, i8* align 4 %187, i64 40, i1 false)
  %188 = load %struct.student*, %struct.student** %7, align 8
  %189 = load i32, i32* %4, align 4
  %190 = sext i32 %189 to i64
  %191 = getelementptr inbounds %struct.student, %struct.student* %188, i64 %190
  %192 = load %struct.student*, %struct.student** %7, align 8
  %193 = load i32, i32* %4, align 4
  %194 = sext i32 %193 to i64
  %195 = getelementptr inbounds %struct.student, %struct.student* %192, i64 %194
  %196 = getelementptr inbounds %struct.student, %struct.student* %195, i64 1
  %197 = bitcast %struct.student* %191 to i8*
  %198 = bitcast %struct.student* %196 to i8*
  call void @llvm.memcpy.p0i8.p0i8.i64(i8* align 4 %197, i8* align 4 %198, i64 40, i1 false)
  %199 = load %struct.student*, %struct.student** %7, align 8
  %200 = getelementptr inbounds %struct.student, %struct.student* %199, i64 1
  %201 = load i32, i32* %4, align 4
  %202 = sext i32 %201 to i64
  %203 = getelementptr inbounds %struct.student, %struct.student* %200, i64 %202
  %204 = bitcast %struct.student* %203 to i8*
  %205 = bitcast %struct.student* %8 to i8*
  call void @llvm.memcpy.p0i8.p0i8.i64(i8* align 4 %204, i8* align 4 %205, i64 40, i1 false)
  br label %206

206:                                              ; preds = %181, %168
  br label %207

207:                                              ; preds = %206
  %208 = load i32, i32* %4, align 4
  %209 = add nsw i32 %208, 1
  store i32 %209, i32* %4, align 4
  br label %162

210:                                              ; preds = %162
  br label %211

211:                                              ; preds = %210
  %212 = load i32, i32* %5, align 4
  %213 = add nsw i32 %212, 1
  store i32 %213, i32* %5, align 4
  br label %157

214:                                              ; preds = %157
  store i32 0, i32* %4, align 4
  br label %215

215:                                              ; preds = %227, %214
  %216 = load i32, i32* %4, align 4
  %217 = load i32, i32* %3, align 4
  %218 = icmp slt i32 %216, %217
  br i1 %218, label %219, label %230

219:                                              ; preds = %215
  %220 = load i32, i32* %4, align 4
  %221 = sext i32 %220 to i64
  %222 = getelementptr inbounds [100 x %struct.student], [100 x %struct.student]* @stu, i64 0, i64 %221
  %223 = getelementptr inbounds %struct.student, %struct.student* %222, i32 0, i32 6
  %224 = load i32, i32* %223, align 4
  %225 = load i32, i32* %6, align 4
  %226 = add nsw i32 %225, %224
  store i32 %226, i32* %6, align 4
  br label %227

227:                                              ; preds = %219
  %228 = load i32, i32* %4, align 4
  %229 = add nsw i32 %228, 1
  store i32 %229, i32* %4, align 4
  br label %215

230:                                              ; preds = %215
  %231 = load %struct.student*, %struct.student** %7, align 8
  %232 = getelementptr inbounds %struct.student, %struct.student* %231, i32 0, i32 0
  %233 = getelementptr inbounds [20 x i8], [20 x i8]* %232, i64 0, i64 0
  %234 = load %struct.student*, %struct.student** %7, align 8
  %235 = getelementptr inbounds %struct.student, %struct.student* %234, i32 0, i32 6
  %236 = load i32, i32* %235, align 4
  %237 = load i32, i32* %6, align 4
  %238 = call i32 (i8*, ...) @printf(i8* getelementptr inbounds ([10 x i8], [10 x i8]* @.str.2, i64 0, i64 0), i8* %233, i32 %236, i32 %237)
  %239 = load i8, i8* %2, align 1
  %240 = sext i8 %239 to i32
  %241 = call i32 (i8*, ...) @__isoc99_scanf(i8* getelementptr inbounds ([3 x i8], [3 x i8]* @.str.3, i64 0, i64 0), i32 %240)
  ret i32 0
}